target datalayout = "e-m:e-p270:32:32-p271:32:32-p272:64:64-i64:64-i128:128-f80:128-n8:16:32:64-S128"
target triple = "x86_64-pc-linux-gnu"

%struct.mq = type { ptr, i32, i32, ptr, ptr, i64, ptr, i64, ptr, i64, ptr, i8, ptr, ptr, [10 x %struct.mq_item] }
%struct.mq_item = type { i32, i64, i64 }
%struct.mpv_counter_info = type { i64, i32, i32, i32, i32 }
%struct.mpv_decomp_state = type { i32, i8, i64, [0 x %struct.mpv_decomp_kilo] }
%struct.mpv_decomp_kilo = type { i64, ptr }
%struct.mpv = type { i32, i32, i32, i32, i32, i32, i32, i32, i32, [28 x i8] }
%struct.unaligned = type { i64 }
%struct.unaligned.0 = type { i32 }
%struct.unaligned.1 = type { i16 }

; Function Attrs: alwaysinline nounwind uwtable
define internal void @unaligned_store_u16(ptr noundef %0, i16 noundef zeroext %1) #2 {
  %3 = alloca ptr, align 8
  %4 = alloca i16, align 2
  %5 = alloca ptr, align 8
  store ptr %0, ptr %3, align 8
  store i16 %1, ptr %4, align 2
  call void @llvm.lifetime.start.p0(i64 8, ptr %5) #11
  %6 = load ptr, ptr %3, align 8
  store ptr %6, ptr %5, align 8
  %7 = load i16, ptr %4, align 2
  %8 = load ptr, ptr %5, align 8
  %9 = getelementptr inbounds nuw %struct.unaligned.1, ptr %8, i32 0, i32 0
  store i16 %7, ptr %9, align 1
  call void @llvm.lifetime.end.p0(i64 8, ptr %5) #11
  ret void
}

; Function Attrs: alwaysinline nounwind uwtable
define internal void @unaligned_store_u32(ptr noundef %0, i32 noundef %1) #2 {
  %3 = alloca ptr, align 8
  %4 = alloca i32, align 4
  %5 = alloca ptr, align 8
  store ptr %0, ptr %3, align 8
  store i32 %1, ptr %4, align 4
  call void @llvm.lifetime.start.p0(i64 8, ptr %5) #11
  %6 = load ptr, ptr %3, align 8
  store ptr %6, ptr %5, align 8
  %7 = load i32, ptr %4, align 4
  %8 = load ptr, ptr %5, align 8
  %9 = getelementptr inbounds nuw %struct.unaligned.0, ptr %8, i32 0, i32 0
  store i32 %7, ptr %9, align 1
  call void @llvm.lifetime.end.p0(i64 8, ptr %5) #11
  ret void
}

; Function Attrs: alwaysinline nounwind uwtable
define internal void @unaligned_store_u64a(ptr noundef %0, i64 noundef %1) #2 {
  %3 = alloca ptr, align 8
  %4 = alloca i64, align 8
  %5 = alloca ptr, align 8
  store ptr %0, ptr %3, align 8
  store i64 %1, ptr %4, align 8
  call void @llvm.lifetime.start.p0(i64 8, ptr %5) #11
  %6 = load ptr, ptr %3, align 8
  store ptr %6, ptr %5, align 8
  %7 = load i64, ptr %4, align 8
  %8 = load ptr, ptr %5, align 8
  %9 = getelementptr inbounds nuw %struct.unaligned, ptr %8, i32 0, i32 0
  store i64 %7, ptr %9, align 1
  call void @llvm.lifetime.end.p0(i64 8, ptr %5) #11
  ret void
}

; Function Attrs: alwaysinline nounwind uwtable
define internal void @partial_store_u64a(ptr noundef %0, i64 noundef %1, i32 noundef %2) #2 {
  %4 = alloca ptr, align 8
  %5 = alloca i64, align 8
  %6 = alloca i32, align 4
  store ptr %0, ptr %4, align 8
  store i64 %1, ptr %5, align 8
  store i32 %2, ptr %6, align 4
  %7 = load i32, ptr %6, align 4
  switch i32 %7, label %64 [
    i32 8, label %8
    i32 7, label %11
    i32 6, label %25
    i32 5, label %34
    i32 4, label %43
    i32 3, label %47
    i32 2, label %56
    i32 1, label %60
    i32 0, label %64
  ]

8:                                                ; preds = %3
  %9 = load ptr, ptr %4, align 8
  %10 = load i64, ptr %5, align 8
  call void @unaligned_store_u64a(ptr noundef %9, i64 noundef %10)
  br label %64

11:                                               ; preds = %3
  %12 = load ptr, ptr %4, align 8
  %13 = load i64, ptr %5, align 8
  %14 = trunc i64 %13 to i32
  call void @unaligned_store_u32(ptr noundef %12, i32 noundef %14)
  %15 = load ptr, ptr %4, align 8
  %16 = getelementptr inbounds i8, ptr %15, i64 4
  %17 = load i64, ptr %5, align 8
  %18 = lshr i64 %17, 32
  %19 = trunc i64 %18 to i16
  call void @unaligned_store_u16(ptr noundef %16, i16 noundef zeroext %19)
  %20 = load i64, ptr %5, align 8
  %21 = lshr i64 %20, 48
  %22 = trunc i64 %21 to i8
  %23 = load ptr, ptr %4, align 8
  %24 = getelementptr inbounds i8, ptr %23, i64 6
  store i8 %22, ptr %24, align 1
  br label %64

25:                                               ; preds = %3
  %26 = load ptr, ptr %4, align 8
  %27 = load i64, ptr %5, align 8
  %28 = trunc i64 %27 to i32
  call void @unaligned_store_u32(ptr noundef %26, i32 noundef %28)
  %29 = load ptr, ptr %4, align 8
  %30 = getelementptr inbounds i8, ptr %29, i64 4
  %31 = load i64, ptr %5, align 8
  %32 = lshr i64 %31, 32
  %33 = trunc i64 %32 to i16
  call void @unaligned_store_u16(ptr noundef %30, i16 noundef zeroext %33)
  br label %64

34:                                               ; preds = %3
  %35 = load ptr, ptr %4, align 8
  %36 = load i64, ptr %5, align 8
  %37 = trunc i64 %36 to i32
  call void @unaligned_store_u32(ptr noundef %35, i32 noundef %37)
  %38 = load i64, ptr %5, align 8
  %39 = lshr i64 %38, 32
  %40 = trunc i64 %39 to i8
  %41 = load ptr, ptr %4, align 8
  %42 = getelementptr inbounds i8, ptr %41, i64 4
  store i8 %40, ptr %42, align 1
  br label %64

43:                                               ; preds = %3
  %44 = load ptr, ptr %4, align 8
  %45 = load i64, ptr %5, align 8
  %46 = trunc i64 %45 to i32
  call void @unaligned_store_u32(ptr noundef %44, i32 noundef %46)
  br label %64

47:                                               ; preds = %3
  %48 = load ptr, ptr %4, align 8
  %49 = load i64, ptr %5, align 8
  %50 = trunc i64 %49 to i16
  call void @unaligned_store_u16(ptr noundef %48, i16 noundef zeroext %50)
  %51 = load i64, ptr %5, align 8
  %52 = lshr i64 %51, 16
  %53 = trunc i64 %52 to i8
  %54 = load ptr, ptr %4, align 8
  %55 = getelementptr inbounds i8, ptr %54, i64 2
  store i8 %53, ptr %55, align 1
  br label %64

56:                                               ; preds = %3
  %57 = load ptr, ptr %4, align 8
  %58 = load i64, ptr %5, align 8
  %59 = trunc i64 %58 to i16
  call void @unaligned_store_u16(ptr noundef %57, i16 noundef zeroext %59)
  br label %64

60:                                               ; preds = %3
  %61 = load i64, ptr %5, align 8
  %62 = trunc i64 %61 to i8
  %63 = load ptr, ptr %4, align 8
  store i8 %62, ptr %63, align 1
  br label %64

64:                                               ; preds = %3, %3, %60, %56, %47, %43, %34, %25, %11, %8
  ret void
}

; Function Attrs: alwaysinline nounwind uwtable
define internal ptr @get_counter_info(ptr noundef %0) #2 {
  %2 = alloca ptr, align 8
  store ptr %0, ptr %2, align 8
  %3 = load ptr, ptr %2, align 8
  %4 = getelementptr inbounds %struct.mpv, ptr %3, i64 1
  %5 = load ptr, ptr %2, align 8
  %6 = getelementptr inbounds nuw %struct.mpv, ptr %5, i32 0, i32 0
  %7 = load i32, ptr %6, align 32
  %8 = zext i32 %7 to i64
  %9 = mul i64 %8, 64
  %10 = getelementptr inbounds nuw i8, ptr %4, i64 %9
  ret ptr %10
}

; Function Attrs: alwaysinline nounwind uwtable
define internal void @mpvStoreState(ptr noundef %0, ptr noundef %1, ptr noundef %2) #2 {
  %4 = alloca ptr, align 8
  %5 = alloca ptr, align 8
  %6 = alloca ptr, align 8
  %7 = alloca ptr, align 8
  %8 = alloca ptr, align 8
  %9 = alloca ptr, align 8
  %10 = alloca i64, align 8
  %11 = alloca ptr, align 8
  %12 = alloca i32, align 4
  %13 = alloca i64, align 8
  %14 = alloca i32, align 4
  store ptr %0, ptr %4, align 8
  store ptr %1, ptr %5, align 8
  store ptr %2, ptr %6, align 8
  call void @llvm.lifetime.start.p0(i64 8, ptr %7) #11
  %15 = load ptr, ptr %4, align 8
  %16 = getelementptr inbounds nuw i8, ptr %15, i64 64
  store ptr %16, ptr %7, align 8
  call void @llvm.lifetime.start.p0(i64 8, ptr %8) #11
  %17 = load ptr, ptr %7, align 8
  %18 = call ptr @get_counter_info(ptr noundef %17)
  store ptr %18, ptr %8, align 8
  call void @llvm.lifetime.start.p0(i64 8, ptr %9) #11
  %19 = load ptr, ptr %6, align 8
  %20 = load ptr, ptr %7, align 8
  %21 = call ptr @get_counter_info(ptr noundef %20)
  %22 = getelementptr inbounds %struct.mpv_counter_info, ptr %21, i64 0
  %23 = getelementptr inbounds nuw %struct.mpv_counter_info, ptr %22, i32 0, i32 2
  %24 = load i32, ptr %23, align 4
  %25 = zext i32 %24 to i64
  %26 = getelementptr inbounds nuw i8, ptr %19, i64 %25
  store ptr %26, ptr %9, align 8
  call void @llvm.lifetime.start.p0(i64 8, ptr %10) #11
  %27 = load ptr, ptr %6, align 8
  %28 = getelementptr inbounds nuw %struct.mpv_decomp_state, ptr %27, i32 0, i32 2
  %29 = load i64, ptr %28, align 8
  store i64 %29, ptr %10, align 8
  call void @llvm.lifetime.start.p0(i64 8, ptr %11) #11
  %30 = load ptr, ptr %5, align 8
  store ptr %30, ptr %11, align 8
  call void @llvm.lifetime.start.p0(i64 4, ptr %12) #11
  store i32 0, ptr %12, align 4
  br label %31

31:                                               ; preds = %86, %3
  %32 = load i32, ptr %12, align 4
  %33 = load ptr, ptr %7, align 8
  %34 = getelementptr inbounds nuw %struct.mpv, ptr %33, i32 0, i32 1
  %35 = load i32, ptr %34, align 4
  %36 = icmp ult i32 %32, %35
  br i1 %36, label %38, label %37

37:                                               ; preds = %31
  call void @llvm.lifetime.end.p0(i64 4, ptr %12) #11
  br label %89

38:                                               ; preds = %31
  call void @llvm.lifetime.start.p0(i64 8, ptr %13) #11
  %39 = load ptr, ptr %9, align 8
  %40 = load i32, ptr %12, align 4
  %41 = zext i32 %40 to i64
  %42 = getelementptr inbounds nuw i64, ptr %39, i64 %41
  %43 = load i64, ptr %42, align 8
  %44 = load i64, ptr %10, align 8
  %45 = add i64 %43, %44
  %46 = load ptr, ptr %8, align 8
  %47 = load i32, ptr %12, align 4
  %48 = zext i32 %47 to i64
  %49 = getelementptr inbounds nuw %struct.mpv_counter_info, ptr %46, i64 %48
  %50 = getelementptr inbounds nuw %struct.mpv_counter_info, ptr %49, i32 0, i32 0
  %51 = load i64, ptr %50, align 8
  %52 = icmp ult i64 %45, %51
  br i1 %52, label %53, label %61

53:                                               ; preds = %38
  %54 = load ptr, ptr %9, align 8
  %55 = load i32, ptr %12, align 4
  %56 = zext i32 %55 to i64
  %57 = getelementptr inbounds nuw i64, ptr %54, i64 %56
  %58 = load i64, ptr %57, align 8
  %59 = load i64, ptr %10, align 8
  %60 = add i64 %58, %59
  br label %68

61:                                               ; preds = %38
  %62 = load ptr, ptr %8, align 8
  %63 = load i32, ptr %12, align 4
  %64 = zext i32 %63 to i64
  %65 = getelementptr inbounds nuw %struct.mpv_counter_info, ptr %62, i64 %64
  %66 = getelementptr inbounds nuw %struct.mpv_counter_info, ptr %65, i32 0, i32 0
  %67 = load i64, ptr %66, align 8
  br label %68

68:                                               ; preds = %61, %53
  %69 = phi i64 [ %60, %53 ], [ %67, %61 ]
  store i64 %69, ptr %13, align 8
  call void @llvm.lifetime.start.p0(i64 4, ptr %14) #11
  %70 = load ptr, ptr %8, align 8
  %71 = load i32, ptr %12, align 4
  %72 = zext i32 %71 to i64
  %73 = getelementptr inbounds nuw %struct.mpv_counter_info, ptr %70, i64 %72
  %74 = getelementptr inbounds nuw %struct.mpv_counter_info, ptr %73, i32 0, i32 1
  %75 = load i32, ptr %74, align 8
  store i32 %75, ptr %14, align 4
  %76 = load ptr, ptr %11, align 8
  %77 = load i64, ptr %13, align 8
  %78 = load i32, ptr %14, align 4
  call void @partial_store_u64a(ptr noundef %76, i64 noundef %77, i32 noundef %78)
  br label %79

79:                                               ; preds = %68
  br label %80

80:                                               ; preds = %79
  br label %81

81:                                               ; preds = %80
  %82 = load i32, ptr %14, align 4
  %83 = load ptr, ptr %11, align 8
  %84 = zext i32 %82 to i64
  %85 = getelementptr inbounds nuw i8, ptr %83, i64 %84
  store ptr %85, ptr %11, align 8
  call void @llvm.lifetime.end.p0(i64 4, ptr %14) #11
  call void @llvm.lifetime.end.p0(i64 8, ptr %13) #11
  br label %86

86:                                               ; preds = %81
  %87 = load i32, ptr %12, align 4
  %88 = add i32 %87, 1
  store i32 %88, ptr %12, align 4
  br label %31

89:                                               ; preds = %37
  call void @llvm.lifetime.end.p0(i64 8, ptr %11) #11
  call void @llvm.lifetime.end.p0(i64 8, ptr %10) #11
  call void @llvm.lifetime.end.p0(i64 8, ptr %9) #11
  call void @llvm.lifetime.end.p0(i64 8, ptr %8) #11
  call void @llvm.lifetime.end.p0(i64 8, ptr %7) #11
  ret void
}

; Function Attrs: nounwind uwtable
define hidden signext i8 @nfaExecMpv_queueCompressState(ptr noundef %0, ptr noundef %1, i64 noundef %2) #0 {
  %4 = alloca ptr, align 8
  %5 = alloca ptr, align 8
  %6 = alloca i64, align 8
  %7 = alloca ptr, align 8
  %8 = alloca ptr, align 8
  store ptr %0, ptr %4, align 8
  store ptr %1, ptr %5, align 8
  store i64 %2, ptr %6, align 8
  call void @llvm.lifetime.start.p0(i64 8, ptr %7) #11
  %9 = load ptr, ptr %5, align 8
  %10 = getelementptr inbounds nuw %struct.mq, ptr %9, i32 0, i32 4
  %11 = load ptr, ptr %10, align 8
  store ptr %11, ptr %7, align 8
  call void @llvm.lifetime.start.p0(i64 8, ptr %8) #11
  %12 = load ptr, ptr %5, align 8
  %13 = getelementptr inbounds nuw %struct.mq, ptr %12, i32 0, i32 3
  %14 = load ptr, ptr %13, align 8
  store ptr %14, ptr %8, align 8
  %15 = load ptr, ptr %4, align 8
  %16 = load ptr, ptr %7, align 8
  %17 = load ptr, ptr %8, align 8
  call void @mpvStoreState(ptr noundef %15, ptr noundef %16, ptr noundef %17)
  call void @llvm.lifetime.end.p0(i64 8, ptr %8) #11
  call void @llvm.lifetime.end.p0(i64 8, ptr %7) #11
  ret i8 0
}