; Function Attrs: nofree norecurse nosync nounwind memory(readwrite, inaccessiblemem: none) uwtable
define hidden noundef signext i8 @nfaExecMpv_queueCompressState(ptr noundef readonly captures(none) %0, ptr noundef readonly captures(none) %1, i64 noundef %2) local_unnamed_addr #0 {
  %4 = getelementptr inbounds nuw i8, ptr %1, i64 16
  %5 = load ptr, ptr %4, align 8
  %6 = getelementptr inbounds nuw i8, ptr %0, i64 64
  %7 = getelementptr inbounds nuw i8, ptr %0, i64 128
  %8 = load i32, ptr %6, align 32
  %9 = zext i32 %8 to i64
  %10 = shl nuw nsw i64 %9, 6
  %11 = getelementptr inbounds nuw i8, ptr %7, i64 %10
  %12 = getelementptr inbounds nuw i8, ptr %11, i64 12
  %13 = load i32, ptr %12, align 4
  %14 = zext i32 %13 to i64
  %15 = getelementptr inbounds nuw i8, ptr %5, i64 %14
  %16 = getelementptr inbounds nuw i8, ptr %5, i64 8
  %17 = load i64, ptr %16, align 8
  %18 = getelementptr inbounds nuw i8, ptr %0, i64 68
  %19 = load i32, ptr %18, align 4
  %.not = icmp eq i32 %19, 0
  br i1 %.not, label %mpvStoreState.exit, label %.lr.ph.preheader

.lr.ph.preheader:                                 ; preds = %3
  %20 = getelementptr inbounds nuw i8, ptr %1, i64 24
  %21 = load ptr, ptr %20, align 8
  br label %.lr.ph

.lr.ph:                                           ; preds = %.lr.ph.preheader, %partial_store_u64a.exit
  %indvars.iv = phi i64 [ 0, %.lr.ph.preheader ], [ %indvars.iv.next, %partial_store_u64a.exit ]
  %.0.i6 = phi ptr [ %21, %.lr.ph.preheader ], [ %60, %partial_store_u64a.exit ]
  %22 = getelementptr inbounds nuw i64, ptr %15, i64 %indvars.iv
  %23 = load i64, ptr %22, align 8
  %24 = add i64 %23, %17
  %25 = getelementptr inbounds nuw %struct.mpv_counter_info, ptr %11, i64 %indvars.iv
  %26 = load i64, ptr %25, align 8
  %..i = tail call i64 @llvm.umin.i64(i64 %24, i64 %26)
  %27 = getelementptr inbounds nuw i8, ptr %25, i64 8
  %28 = load i32, ptr %27, align 8
  switch i32 %28, label %partial_store_u64a.exit [
    i32 8, label %29
    i32 7, label %30
    i32 6, label %38
    i32 5, label %43
    i32 4, label %48
    i32 3, label %50
    i32 2, label %55
    i32 1, label %57
  ]

29:                                               ; preds = %.lr.ph
  store i64 %..i, ptr %.0.i6, align 1
  br label %partial_store_u64a.exit

30:                                               ; preds = %.lr.ph
  %31 = trunc i64 %..i to i32
  store i32 %31, ptr %.0.i6, align 1
  %32 = getelementptr inbounds nuw i8, ptr %.0.i6, i64 4
  %33 = lshr i64 %..i, 32
  %34 = trunc i64 %33 to i16
  store i16 %34, ptr %32, align 1
  %35 = lshr i64 %..i, 48
  %36 = trunc i64 %35 to i8
  %37 = getelementptr inbounds nuw i8, ptr %.0.i6, i64 6
  store i8 %36, ptr %37, align 1
  br label %partial_store_u64a.exit

38:                                               ; preds = %.lr.ph
  %39 = trunc i64 %..i to i32
  store i32 %39, ptr %.0.i6, align 1
  %40 = getelementptr inbounds nuw i8, ptr %.0.i6, i64 4
  %41 = lshr i64 %..i, 32
  %42 = trunc i64 %41 to i16
  store i16 %42, ptr %40, align 1
  br label %partial_store_u64a.exit

43:                                               ; preds = %.lr.ph
  %44 = trunc i64 %..i to i32
  store i32 %44, ptr %.0.i6, align 1
  %45 = lshr i64 %..i, 32
  %46 = trunc i64 %45 to i8
  %47 = getelementptr inbounds nuw i8, ptr %.0.i6, i64 4
  store i8 %46, ptr %47, align 1
  br label %partial_store_u64a.exit

48:                                               ; preds = %.lr.ph
  %49 = trunc i64 %..i to i32
  store i32 %49, ptr %.0.i6, align 1
  br label %partial_store_u64a.exit

50:                                               ; preds = %.lr.ph
  %51 = trunc i64 %..i to i16
  store i16 %51, ptr %.0.i6, align 1
  %52 = lshr i64 %..i, 16
  %53 = trunc i64 %52 to i8
  %54 = getelementptr inbounds nuw i8, ptr %.0.i6, i64 2
  store i8 %53, ptr %54, align 1
  br label %partial_store_u64a.exit

55:                                               ; preds = %.lr.ph
  %56 = trunc i64 %..i to i16
  store i16 %56, ptr %.0.i6, align 1
  br label %partial_store_u64a.exit

57:                                               ; preds = %.lr.ph
  %58 = trunc i64 %..i to i8
  store i8 %58, ptr %.0.i6, align 1
  br label %partial_store_u64a.exit

partial_store_u64a.exit:                          ; preds = %.lr.ph, %29, %30, %38, %43, %48, %50, %55, %57
  %59 = zext i32 %28 to i64
  %60 = getelementptr inbounds nuw i8, ptr %.0.i6, i64 %59
  %indvars.iv.next = add nuw nsw i64 %indvars.iv, 1
  %61 = load i32, ptr %18, align 4
  %62 = zext i32 %61 to i64
  %63 = icmp samesign ult i64 %indvars.iv.next, %62
  br i1 %63, label %.lr.ph, label %mpvStoreState.exit

mpvStoreState.exit:                               ; preds = %partial_store_u64a.exit, %3
  ret i8 0
}